target datalayout = "e-m:e-p270:32:32-p271:32:32-p272:64:64-i64:64-i128:128-f80:128-n8:16:32:64-S128"
target triple = "x86_64-pc-linux-gnu"

%struct.sockaddr_storage = type { i16, [118 x i8], i64 }
%struct.srun_info_t = type { ptr, %struct.sockaddr_storage, %struct.sockaddr_storage, i32, i16 }

@.str.1 = private unnamed_addr constant [17 x i8] c"slurmstepd_job.c\00", align 1
@__func__.srun_info_create = private unnamed_addr constant [17 x i8] c"srun_info_create\00", align 1

; Function Attrs: nounwind uwtable
define dso_local ptr @srun_info_create(ptr noundef %0, ptr noundef %1, ptr noundef %2, i32 noundef %3, i16 noundef zeroext %4) #0 {
  %6 = alloca ptr, align 8
  %7 = alloca ptr, align 8
  %8 = alloca ptr, align 8
  %9 = alloca ptr, align 8
  %10 = alloca i32, align 4
  %11 = alloca i16, align 2
  %12 = alloca ptr, align 8
  %13 = alloca i32, align 4
  store ptr %0, ptr %7, align 8
  store ptr %1, ptr %8, align 8
  store ptr %2, ptr %9, align 8
  store i32 %3, ptr %10, align 4
  store i16 %4, ptr %11, align 2
  call void @llvm.lifetime.start.p0(i64 8, ptr %12) #9
  %14 = call ptr @slurm_xcalloc(i64 noundef 1, i64 noundef 272, i1 noundef zeroext true, i1 noundef zeroext false, ptr noundef @.str.1, i32 noundef 724, ptr noundef @__func__.srun_info_create)
  store ptr %14, ptr %12, align 8
  %15 = load i16, ptr %11, align 2
  %16 = icmp ne i16 %15, 0
  br i1 %16, label %17, label %21

17:                                               ; preds = %5
  %18 = load i16, ptr %11, align 2
  %19 = zext i16 %18 to i32
  %20 = icmp eq i32 %19, 65534
  br i1 %20, label %21, label %22

21:                                               ; preds = %17, %5
  store i16 11008, ptr %11, align 2
  br label %22

22:                                               ; preds = %21, %17
  %23 = load i16, ptr %11, align 2
  %24 = load ptr, ptr %12, align 8
  %25 = getelementptr inbounds nuw %struct.srun_info_t, ptr %24, i32 0, i32 4
  store i16 %23, ptr %25, align 4
  %26 = load i32, ptr %10, align 4
  %27 = load ptr, ptr %12, align 8
  %28 = getelementptr inbounds nuw %struct.srun_info_t, ptr %27, i32 0, i32 3
  store i32 %26, ptr %28, align 8
  %29 = load ptr, ptr %7, align 8
  %30 = icmp ne ptr %29, null
  br i1 %30, label %33, label %31

31:                                               ; preds = %22
  %32 = load ptr, ptr %12, align 8
  store ptr %32, ptr %6, align 8
  store i32 1, ptr %13, align 4
  br label %53

33:                                               ; preds = %22
  %34 = load ptr, ptr %7, align 8
  %35 = call ptr @slurm_cred_get_signature(ptr noundef %34)
  %36 = load ptr, ptr %12, align 8
  %37 = getelementptr inbounds nuw %struct.srun_info_t, ptr %36, i32 0, i32 0
  store ptr %35, ptr %37, align 8
  %38 = load ptr, ptr %9, align 8
  %39 = icmp ne ptr %38, null
  br i1 %39, label %40, label %44

40:                                               ; preds = %33
  %41 = load ptr, ptr %12, align 8
  %42 = getelementptr inbounds nuw %struct.srun_info_t, ptr %41, i32 0, i32 2
  %43 = load ptr, ptr %9, align 8
  call void @llvm.memcpy.p0.p0.i64(ptr align 8 %42, ptr align 8 %43, i64 128, i1 false)
  br label %44

44:                                               ; preds = %40, %33
  %45 = load ptr, ptr %8, align 8
  %46 = icmp ne ptr %45, null
  br i1 %46, label %47, label %51

47:                                               ; preds = %44
  %48 = load ptr, ptr %12, align 8
  %49 = getelementptr inbounds nuw %struct.srun_info_t, ptr %48, i32 0, i32 1
  %50 = load ptr, ptr %8, align 8
  call void @llvm.memcpy.p0.p0.i64(ptr align 8 %49, ptr align 8 %50, i64 128, i1 false)
  br label %51

51:                                               ; preds = %47, %44
  %52 = load ptr, ptr %12, align 8
  store ptr %52, ptr %6, align 8
  store i32 1, ptr %13, align 4
  br label %53

53:                                               ; preds = %51, %31
  call void @llvm.lifetime.end.p0(i64 8, ptr %12) #9
  %54 = load ptr, ptr %6, align 8
  ret ptr %54
}