; Function Attrs: nounwind uwtable
define dso_local ptr @srun_info_create(ptr noundef %0, ptr noundef readonly captures(address_is_null) %1, ptr noundef readonly captures(address_is_null) %2, i32 noundef %3, i16 noundef zeroext %4) local_unnamed_addr #0 {
  %6 = tail call ptr @slurm_xcalloc(i64 noundef 1, i64 noundef 272, i1 noundef zeroext true, i1 noundef zeroext false, ptr noundef nonnull @.str.1, i32 noundef 724, ptr noundef nonnull @__func__.srun_info_create) #9
  %7 = icmp eq i16 %4, 0
  %8 = icmp eq i16 %4, -2
  %or.cond = or i1 %7, %8
  %spec.store.select = select i1 %or.cond, i16 11008, i16 %4
  %9 = getelementptr inbounds nuw i8, ptr %6, i64 268
  store i16 %spec.store.select, ptr %9, align 4
  %10 = getelementptr inbounds nuw i8, ptr %6, i64 264
  store i32 %3, ptr %10, align 8
  %.not = icmp eq ptr %0, null
  br i1 %.not, label %18, label %11

11:                                               ; preds = %5
  %12 = tail call ptr @slurm_cred_get_signature(ptr noundef nonnull %0) #9
  store ptr %12, ptr %6, align 8
  %.not21 = icmp eq ptr %2, null
  br i1 %.not21, label %15, label %13

13:                                               ; preds = %11
  %14 = getelementptr inbounds nuw i8, ptr %6, i64 136
  tail call void @llvm.memcpy.p0.p0.i64(ptr noundef nonnull align 8 dereferenceable(128) %14, ptr noundef nonnull align 8 dereferenceable(128) %2, i64 128, i1 false)
  br label %15

15:                                               ; preds = %13, %11
  %.not22 = icmp eq ptr %1, null
  br i1 %.not22, label %18, label %16

16:                                               ; preds = %15
  %17 = getelementptr inbounds nuw i8, ptr %6, i64 8
  tail call void @llvm.memcpy.p0.p0.i64(ptr noundef nonnull align 8 dereferenceable(128) %17, ptr noundef nonnull align 8 dereferenceable(128) %1, i64 128, i1 false)
  br label %18

18:                                               ; preds = %15, %16, %5
  ret ptr %6
}